
tree.o:     file format elf64-x86-64


Disassembly of section .text:

0000000000000000 <rb_init>:
   0:	e8 00 00 00 00       	callq  5 <rb_init+0x5>
   5:	55                   	push   %rbp
   6:	48 89 e5             	mov    %rsp,%rbp
   9:	41 57                	push   %r15
   b:	41 56                	push   %r14
   d:	41 55                	push   %r13
   f:	41 54                	push   %r12
  11:	53                   	push   %rbx
  12:	48 83 ec 10          	sub    $0x10,%rsp
  16:	e8 00 00 00 00       	callq  1b <rb_init+0x1b>
  1b:	48 89 45 c8          	mov    %rax,-0x38(%rbp)
  1f:	e8 00 00 00 00       	callq  24 <rb_init+0x24>
  24:	49 89 c6             	mov    %rax,%r14
  27:	e8 00 00 00 00       	callq  2c <rb_init+0x2c>
  2c:	49 89 c7             	mov    %rax,%r15
  2f:	e8 00 00 00 00       	callq  34 <rb_init+0x34>
  34:	49 89 c5             	mov    %rax,%r13
  37:	e8 00 00 00 00       	callq  3c <rb_init+0x3c>
  3c:	48 89 c3             	mov    %rax,%rbx
  3f:	e8 00 00 00 00       	callq  44 <rb_init+0x44>
  44:	48 89 45 d0          	mov    %rax,-0x30(%rbp)
  48:	e8 00 00 00 00       	callq  4d <rb_init+0x4d>
  4d:	48 8b 4d c8          	mov    -0x38(%rbp),%rcx
  51:	49 89 c4             	mov    %rax,%r12
  54:	48 8b 45 d0          	mov    -0x30(%rbp),%rax
  58:	4c 89 20             	mov    %r12,(%rax)
  5b:	49 89 1c 24          	mov    %rbx,(%r12)
  5f:	4c 89 2b             	mov    %r13,(%rbx)
  62:	4d 89 7d 00          	mov    %r15,0x0(%r13)
  66:	4d 89 37             	mov    %r14,(%r15)
  69:	49 89 0e             	mov    %rcx,(%r14)
  6c:	48 8b 79 08          	mov    0x8(%rcx),%rdi
  70:	e8 00 00 00 00       	callq  75 <rb_init+0x75>
  75:	48 8b 4d c8          	mov    -0x38(%rbp),%rcx
  79:	4c 89 71 08          	mov    %r14,0x8(%rcx)
  7d:	49 8b 7e 08          	mov    0x8(%r14),%rdi
  81:	e8 00 00 00 00       	callq  86 <rb_init+0x86>
  86:	4d 89 7e 08          	mov    %r15,0x8(%r14)
  8a:	49 8b 7f 08          	mov    0x8(%r15),%rdi
  8e:	e8 00 00 00 00       	callq  93 <rb_init+0x93>
  93:	4d 89 6f 08          	mov    %r13,0x8(%r15)
  97:	49 8b 7d 08          	mov    0x8(%r13),%rdi
  9b:	e8 00 00 00 00       	callq  a0 <rb_init+0xa0>
  a0:	49 89 5d 08          	mov    %rbx,0x8(%r13)
  a4:	48 8b 7b 08          	mov    0x8(%rbx),%rdi
  a8:	e8 00 00 00 00       	callq  ad <rb_init+0xad>
  ad:	4c 89 63 08          	mov    %r12,0x8(%rbx)
  b1:	49 8b 7c 24 10       	mov    0x10(%r12),%rdi
  b6:	e8 00 00 00 00       	callq  bb <rb_init+0xbb>
  bb:	48 8b 45 d0          	mov    -0x30(%rbp),%rax
  bf:	49 89 44 24 10       	mov    %rax,0x10(%r12)
  c4:	48 83 c4 10          	add    $0x10,%rsp
  c8:	4c 89 e0             	mov    %r12,%rax
  cb:	5b                   	pop    %rbx
  cc:	41 5c                	pop    %r12
  ce:	41 5d                	pop    %r13
  d0:	41 5e                	pop    %r14
  d2:	41 5f                	pop    %r15
  d4:	5d                   	pop    %rbp
  d5:	c3                   	retq   
  d6:	66 2e 0f 1f 84 00 00 	nopw   %cs:0x0(%rax,%rax,1)
  dd:	00 00 00 

00000000000000e0 <left_rotate>:
  e0:	e8 00 00 00 00       	callq  e5 <left_rotate+0x5>
  e5:	55                   	push   %rbp
  e6:	48 89 e5             	mov    %rsp,%rbp
  e9:	41 54                	push   %r12
  eb:	53                   	push   %rbx
  ec:	80 7e 1d 00          	cmpb   $0x0,0x1d(%rsi)
  f0:	0f 85 00 00 00 00    	jne    f6 <left_rotate+0x16>
  f6:	4c 8b 66 10          	mov    0x10(%rsi),%r12
  fa:	48 89 f3             	mov    %rsi,%rbx
  fd:	41 80 7c 24 1d 00    	cmpb   $0x0,0x1d(%r12)
 103:	0f 85 00 00 00 00    	jne    109 <left_rotate+0x29>
 109:	48 8b 06             	mov    (%rsi),%rax
 10c:	48 89 f7             	mov    %rsi,%rdi
 10f:	49 89 04 24          	mov    %rax,(%r12)
 113:	e8 00 00 00 00       	callq  118 <left_rotate+0x38>
 118:	84 c0                	test   %al,%al
 11a:	48 8b 03             	mov    (%rbx),%rax
 11d:	74 33                	je     152 <left_rotate+0x72>
 11f:	4c 89 60 08          	mov    %r12,0x8(%rax)
 123:	4c 89 23             	mov    %r12,(%rbx)
 126:	49 8b 44 24 08       	mov    0x8(%r12),%rax
 12b:	48 89 43 10          	mov    %rax,0x10(%rbx)
 12f:	49 89 5c 24 08       	mov    %rbx,0x8(%r12)
 134:	48 8b 43 10          	mov    0x10(%rbx),%rax
 138:	48 85 c0             	test   %rax,%rax
 13b:	74 03                	je     140 <left_rotate+0x60>
 13d:	48 89 18             	mov    %rbx,(%rax)
 140:	80 3d 00 00 00 00 00 	cmpb   $0x0,0x0(%rip)        # 147 <left_rotate+0x67>
 147:	0f 85 00 00 00 00    	jne    14d <left_rotate+0x6d>
 14d:	5b                   	pop    %rbx
 14e:	41 5c                	pop    %r12
 150:	5d                   	pop    %rbp
 151:	c3                   	retq   
 152:	4c 89 60 10          	mov    %r12,0x10(%rax)
 156:	eb cb                	jmp    123 <left_rotate+0x43>
 158:	0f 1f 84 00 00 00 00 	nopl   0x0(%rax,%rax,1)
 15f:	00 

0000000000000160 <right_rotate>:
 160:	e8 00 00 00 00       	callq  165 <right_rotate+0x5>
 165:	55                   	push   %rbp
 166:	48 89 e5             	mov    %rsp,%rbp
 169:	41 54                	push   %r12
 16b:	53                   	push   %rbx
 16c:	80 7e 1d 00          	cmpb   $0x0,0x1d(%rsi)
 170:	0f 85 00 00 00 00    	jne    176 <right_rotate+0x16>
 176:	4c 8b 66 08          	mov    0x8(%rsi),%r12
 17a:	48 89 f3             	mov    %rsi,%rbx
 17d:	41 80 7c 24 1d 00    	cmpb   $0x0,0x1d(%r12)
 183:	0f 85 00 00 00 00    	jne    189 <right_rotate+0x29>
 189:	48 8b 06             	mov    (%rsi),%rax
 18c:	48 89 f7             	mov    %rsi,%rdi
 18f:	49 89 04 24          	mov    %rax,(%r12)
 193:	e8 00 00 00 00       	callq  198 <right_rotate+0x38>
 198:	84 c0                	test   %al,%al
 19a:	48 8b 03             	mov    (%rbx),%rax
 19d:	74 33                	je     1d2 <right_rotate+0x72>
 19f:	4c 89 60 08          	mov    %r12,0x8(%rax)
 1a3:	4c 89 23             	mov    %r12,(%rbx)
 1a6:	49 8b 44 24 10       	mov    0x10(%r12),%rax
 1ab:	48 89 43 08          	mov    %rax,0x8(%rbx)
 1af:	49 89 5c 24 10       	mov    %rbx,0x10(%r12)
 1b4:	48 8b 43 08          	mov    0x8(%rbx),%rax
 1b8:	48 85 c0             	test   %rax,%rax
 1bb:	74 03                	je     1c0 <right_rotate+0x60>
 1bd:	48 89 18             	mov    %rbx,(%rax)
 1c0:	80 3d 00 00 00 00 00 	cmpb   $0x0,0x0(%rip)        # 1c7 <right_rotate+0x67>
 1c7:	0f 85 00 00 00 00    	jne    1cd <right_rotate+0x6d>
 1cd:	5b                   	pop    %rbx
 1ce:	41 5c                	pop    %r12
 1d0:	5d                   	pop    %rbp
 1d1:	c3                   	retq   
 1d2:	4c 89 60 10          	mov    %r12,0x10(%rax)
 1d6:	eb cb                	jmp    1a3 <right_rotate+0x43>
 1d8:	0f 1f 84 00 00 00 00 	nopl   0x0(%rax,%rax,1)
 1df:	00 

00000000000001e0 <tree_insert>:
 1e0:	e8 00 00 00 00       	callq  1e5 <tree_insert+0x5>
 1e5:	55                   	push   %rbp
 1e6:	31 c9                	xor    %ecx,%ecx
 1e8:	ba 01 00 00 00       	mov    $0x1,%edx
 1ed:	48 89 e5             	mov    %rsp,%rbp
 1f0:	41 57                	push   %r15
 1f2:	41 56                	push   %r14
 1f4:	41 55                	push   %r13
 1f6:	49 89 fd             	mov    %rdi,%r13
 1f9:	41 54                	push   %r12
 1fb:	53                   	push   %rbx
 1fc:	48 83 ec 08          	sub    $0x8,%rsp
 200:	48 89 75 d0          	mov    %rsi,-0x30(%rbp)
 204:	44 8b 76 18          	mov    0x18(%rsi),%r14d
 208:	89 c8                	mov    %ecx,%eax
 20a:	f0 41 0f b0 55 1f    	lock cmpxchg %dl,0x1f(%r13)
 210:	75 f6                	jne    208 <tree_insert+0x28>
 212:	80 3d 00 00 00 00 00 	cmpb   $0x0,0x0(%rip)        # 219 <tree_insert+0x39>
 219:	0f 85 00 00 00 00    	jne    21f <tree_insert+0x3f>
 21f:	4d 8b 65 08          	mov    0x8(%r13),%r12
 223:	41 80 7c 24 1d 00    	cmpb   $0x0,0x1d(%r12)
 229:	0f 85 13 01 00 00    	jne    342 <tree_insert+0x162>
 22f:	41 c6 45 1f 00       	movb   $0x0,0x1f(%r13)
 234:	45 31 ff             	xor    %r15d,%r15d
 237:	eb 33                	jmp    26c <tree_insert+0x8c>
 239:	48 8b 45 d0          	mov    -0x30(%rbp),%rax
 23d:	4c 89 e7             	mov    %r12,%rdi
 240:	c6 40 1f 01          	movb   $0x1,0x1f(%rax)
 244:	e8 00 00 00 00       	callq  249 <tree_insert+0x69>
 249:	84 c0                	test   %al,%al
 24b:	0f 85 98 00 00 00    	jne    2e9 <tree_insert+0x109>
 251:	80 3d 00 00 00 00 00 	cmpb   $0x0,0x0(%rip)        # 258 <tree_insert+0x78>
 258:	c6 43 1f 00          	movb   $0x0,0x1f(%rbx)
 25c:	0f 85 00 00 00 00    	jne    262 <tree_insert+0x82>
 262:	41 c6 44 24 1f 00    	movb   $0x0,0x1f(%r12)
 268:	4d 8b 65 08          	mov    0x8(%r13),%r12
 26c:	ba 01 00 00 00       	mov    $0x1,%edx
 271:	44 89 f8             	mov    %r15d,%eax
 274:	f0 41 0f b0 54 24 1f 	lock cmpxchg %dl,0x1f(%r12)
 27b:	0f 85 22 01 00 00    	jne    3a3 <tree_insert+0x1c3>
 281:	80 3d 00 00 00 00 00 	cmpb   $0x0,0x0(%rip)        # 288 <tree_insert+0xa8>
 288:	0f 85 00 00 00 00    	jne    28e <tree_insert+0xae>
 28e:	41 80 7c 24 1d 00    	cmpb   $0x0,0x1d(%r12)
 294:	0f 85 9d 00 00 00    	jne    337 <tree_insert+0x157>
 29a:	49 8b 5c 24 10       	mov    0x10(%r12),%rbx
 29f:	45 39 74 24 18       	cmp    %r14d,0x18(%r12)
 2a4:	ba 01 00 00 00       	mov    $0x1,%edx
 2a9:	44 89 f8             	mov    %r15d,%eax
 2ac:	49 0f 4d 5c 24 08    	cmovge 0x8(%r12),%rbx
 2b2:	f0 0f b0 53 1f       	lock cmpxchg %dl,0x1f(%rbx)
 2b7:	0f 85 ce 00 00 00    	jne    38b <tree_insert+0x1ab>
 2bd:	80 3d 00 00 00 00 00 	cmpb   $0x0,0x0(%rip)        # 2c4 <tree_insert+0xe4>
 2c4:	0f 85 00 00 00 00    	jne    2ca <tree_insert+0xea>
 2ca:	80 7b 1d 00          	cmpb   $0x0,0x1d(%rbx)
 2ce:	0f 85 65 ff ff ff    	jne    239 <tree_insert+0x59>
 2d4:	41 c6 44 24 1f 00    	movb   $0x0,0x1f(%r12)
 2da:	80 7b 1d 00          	cmpb   $0x0,0x1d(%rbx)
 2de:	0f 85 55 ff ff ff    	jne    239 <tree_insert+0x59>
 2e4:	49 89 dc             	mov    %rbx,%r12
 2e7:	eb b1                	jmp    29a <tree_insert+0xba>
 2e9:	48 8b 5d d0          	mov    -0x30(%rbp),%rbx
 2ed:	4c 89 23             	mov    %r12,(%rbx)
 2f0:	45 39 74 24 18       	cmp    %r14d,0x18(%r12)
 2f5:	7d 2f                	jge    326 <tree_insert+0x146>
 2f7:	49 8b 7c 24 10       	mov    0x10(%r12),%rdi
 2fc:	e8 00 00 00 00       	callq  301 <tree_insert+0x121>
 301:	48 8b 45 d0          	mov    -0x30(%rbp),%rax
 305:	49 89 44 24 10       	mov    %rax,0x10(%r12)
 30a:	80 3d 00 00 00 00 00 	cmpb   $0x0,0x0(%rip)        # 311 <tree_insert+0x131>
 311:	0f 85 00 00 00 00    	jne    317 <tree_insert+0x137>
 317:	48 8d 65 d8          	lea    -0x28(%rbp),%rsp
 31b:	5b                   	pop    %rbx
 31c:	41 5c                	pop    %r12
 31e:	41 5d                	pop    %r13
 320:	41 5e                	pop    %r14
 322:	41 5f                	pop    %r15
 324:	5d                   	pop    %rbp
 325:	c3                   	retq   
 326:	49 8b 7c 24 08       	mov    0x8(%r12),%rdi
 32b:	e8 00 00 00 00       	callq  330 <tree_insert+0x150>
 330:	49 89 5c 24 08       	mov    %rbx,0x8(%r12)
 335:	eb d3                	jmp    30a <tree_insert+0x12a>
 337:	4c 89 e3             	mov    %r12,%rbx
 33a:	45 31 e4             	xor    %r12d,%r12d
 33d:	e9 f7 fe ff ff       	jmpq   239 <tree_insert+0x59>
 342:	4c 89 e7             	mov    %r12,%rdi
 345:	e8 00 00 00 00       	callq  34a <tree_insert+0x16a>
 34a:	48 8b 45 d0          	mov    -0x30(%rbp),%rax
 34e:	80 3d 00 00 00 00 00 	cmpb   $0x0,0x0(%rip)        # 355 <tree_insert+0x175>
 355:	c6 40 1f 01          	movb   $0x1,0x1f(%rax)
 359:	0f 85 00 00 00 00    	jne    35f <tree_insert+0x17f>
 35f:	48 8b 45 d0          	mov    -0x30(%rbp),%rax
 363:	49 89 45 08          	mov    %rax,0x8(%r13)
 367:	4c 89 28             	mov    %r13,(%rax)
 36a:	80 3d 00 00 00 00 00 	cmpb   $0x0,0x0(%rip)        # 371 <tree_insert+0x191>
 371:	0f 85 00 00 00 00    	jne    377 <tree_insert+0x197>
 377:	41 c6 45 1f 00       	movb   $0x0,0x1f(%r13)
 37c:	48 8d 65 d8          	lea    -0x28(%rbp),%rsp
 380:	5b                   	pop    %rbx
 381:	41 5c                	pop    %r12
 383:	41 5d                	pop    %r13
 385:	41 5e                	pop    %r14
 387:	41 5f                	pop    %r15
 389:	5d                   	pop    %rbp
 38a:	c3                   	retq   
 38b:	80 3d 00 00 00 00 00 	cmpb   $0x0,0x0(%rip)        # 392 <tree_insert+0x1b2>
 392:	0f 85 00 00 00 00    	jne    398 <tree_insert+0x1b8>
 398:	41 c6 44 24 1f 00    	movb   $0x0,0x1f(%r12)
 39e:	e9 c5 fe ff ff       	jmpq   268 <tree_insert+0x88>
 3a3:	80 3d 00 00 00 00 00 	cmpb   $0x0,0x0(%rip)        # 3aa <tree_insert+0x1ca>
 3aa:	0f 84 b8 fe ff ff    	je     268 <tree_insert+0x88>
 3b0:	e9 00 00 00 00       	jmpq   3b5 <tree_insert+0x1d5>
 3b5:	66 66 2e 0f 1f 84 00 	data16 nopw %cs:0x0(%rax,%rax,1)
 3bc:	00 00 00 00 

00000000000003c0 <rb_insert>:
 3c0:	e8 00 00 00 00       	callq  3c5 <rb_insert+0x5>
 3c5:	55                   	push   %rbp
 3c6:	48 89 e5             	mov    %rsp,%rbp
 3c9:	41 56                	push   %r14
 3cb:	41 55                	push   %r13
 3cd:	49 89 fd             	mov    %rdi,%r13
 3d0:	41 54                	push   %r12
 3d2:	53                   	push   %rbx
 3d3:	89 f3                	mov    %esi,%ebx
 3d5:	48 81 ec a0 01 00 00 	sub    $0x1a0,%rsp
 3dc:	65 48 8b 04 25 28 00 	mov    %gs:0x28,%rax
 3e3:	00 00 
 3e5:	48 89 45 d8          	mov    %rax,-0x28(%rbp)
 3e9:	31 c0                	xor    %eax,%eax
 3eb:	e8 00 00 00 00       	callq  3f0 <rb_insert+0x30>
 3f0:	ba 28 00 00 00       	mov    $0x28,%edx
 3f5:	be c0 0c 00 00       	mov    $0xcc0,%esi
 3fa:	48 8b 3d 00 00 00 00 	mov    0x0(%rip),%rdi        # 401 <rb_insert+0x41>
 401:	e8 00 00 00 00       	callq  406 <rb_insert+0x46>
 406:	89 58 18             	mov    %ebx,0x18(%rax)
 409:	49 89 c4             	mov    %rax,%r12
 40c:	c6 40 1c 00          	movb   $0x0,0x1c(%rax)
 410:	e8 00 00 00 00       	callq  415 <rb_insert+0x55>
 415:	49 89 44 24 08       	mov    %rax,0x8(%r12)
 41a:	e8 00 00 00 00       	callq  41f <rb_insert+0x5f>
 41f:	41 c6 44 24 1d 00    	movb   $0x0,0x1d(%r12)
 425:	4c 89 e6             	mov    %r12,%rsi
 428:	4c 89 ef             	mov    %r13,%rdi
 42b:	49 89 44 24 10       	mov    %rax,0x10(%r12)
 430:	49 c7 04 24 00 00 00 	movq   $0x0,(%r12)
 437:	00 
 438:	41 c6 44 24 1f 00    	movb   $0x0,0x1f(%r12)
 43e:	41 c7 44 24 20 ff ff 	movl   $0xffffffff,0x20(%r12)
 445:	ff ff 
 447:	e8 00 00 00 00       	callq  44c <rb_insert+0x8c>
 44c:	49 8b 1c 24          	mov    (%r12),%rbx
 450:	48 8d bd 40 fe ff ff 	lea    -0x1c0(%rbp),%rdi
 457:	e8 00 00 00 00       	callq  45c <rb_insert+0x9c>
 45c:	4c 89 e6             	mov    %r12,%rsi
 45f:	48 8d bd 40 fe ff ff 	lea    -0x1c0(%rbp),%rdi
 466:	e8 00 00 00 00       	callq  46b <rb_insert+0xab>
 46b:	48 89 de             	mov    %rbx,%rsi
 46e:	48 8d bd 40 fe ff ff 	lea    -0x1c0(%rbp),%rdi
 475:	e8 00 00 00 00       	callq  47a <rb_insert+0xba>
 47a:	48 85 db             	test   %rbx,%rbx
 47d:	0f 84 c6 01 00 00    	je     649 <rb_insert+0x289>
 483:	4c 8b 33             	mov    (%rbx),%r14
 486:	31 f6                	xor    %esi,%esi
 488:	4d 85 f6             	test   %r14,%r14
 48b:	74 0d                	je     49a <rb_insert+0xda>
 48d:	49 8b 76 08          	mov    0x8(%r14),%rsi
 491:	48 39 de             	cmp    %rbx,%rsi
 494:	0f 84 b9 01 00 00    	je     653 <rb_insert+0x293>
 49a:	48 8d bd 40 fe ff ff 	lea    -0x1c0(%rbp),%rdi
 4a1:	e8 00 00 00 00       	callq  4a6 <rb_insert+0xe6>
 4a6:	4c 89 f6             	mov    %r14,%rsi
 4a9:	48 8d bd 40 fe ff ff 	lea    -0x1c0(%rbp),%rdi
 4b0:	e8 00 00 00 00       	callq  4b5 <rb_insert+0xf5>
 4b5:	4c 89 e6             	mov    %r12,%rsi
 4b8:	4c 89 ef             	mov    %r13,%rdi
 4bb:	e8 00 00 00 00       	callq  4c0 <rb_insert+0x100>
 4c0:	84 c0                	test   %al,%al
 4c2:	0f 85 27 01 00 00    	jne    5ef <rb_insert+0x22f>
 4c8:	4c 89 e6             	mov    %r12,%rsi
 4cb:	4c 89 ef             	mov    %r13,%rdi
 4ce:	e8 00 00 00 00       	callq  4d3 <rb_insert+0x113>
 4d3:	84 c0                	test   %al,%al
 4d5:	0f 85 cd 01 00 00    	jne    6a8 <rb_insert+0x2e8>
 4db:	49 8b 1c 24          	mov    (%r12),%rbx
 4df:	80 7b 1c 01          	cmpb   $0x1,0x1c(%rbx)
 4e3:	74 5a                	je     53f <rb_insert+0x17f>
 4e5:	4c 89 e7             	mov    %r12,%rdi
 4e8:	e8 00 00 00 00       	callq  4ed <rb_insert+0x12d>
 4ed:	80 7b 1c 00          	cmpb   $0x0,0x1c(%rbx)
 4f1:	75 0a                	jne    4fd <rb_insert+0x13d>
 4f3:	80 78 1c 00          	cmpb   $0x0,0x1c(%rax)
 4f7:	0f 84 5f 01 00 00    	je     65c <rb_insert+0x29c>
 4fd:	48 89 df             	mov    %rbx,%rdi
 500:	e8 00 00 00 00       	callq  505 <rb_insert+0x145>
 505:	4c 89 e7             	mov    %r12,%rdi
 508:	84 c0                	test   %al,%al
 50a:	0f 84 ab 00 00 00    	je     5bb <rb_insert+0x1fb>
 510:	e8 00 00 00 00       	callq  515 <rb_insert+0x155>
 515:	84 c0                	test   %al,%al
 517:	0f 84 65 01 00 00    	je     682 <rb_insert+0x2c2>
 51d:	49 8b 1c 24          	mov    (%r12),%rbx
 521:	4c 89 e7             	mov    %r12,%rdi
 524:	e8 00 00 00 00       	callq  529 <rb_insert+0x169>
 529:	4c 89 ef             	mov    %r13,%rdi
 52c:	48 8b 03             	mov    (%rbx),%rax
 52f:	c6 40 1c 00          	movb   $0x0,0x1c(%rax)
 533:	48 8b 33             	mov    (%rbx),%rsi
 536:	c6 43 1c 01          	movb   $0x1,0x1c(%rbx)
 53a:	e8 00 00 00 00       	callq  53f <rb_insert+0x17f>
 53f:	31 db                	xor    %ebx,%ebx
 541:	eb 2c                	jmp    56f <rb_insert+0x1af>
 543:	89 de                	mov    %ebx,%esi
 545:	48 8d bd 40 fe ff ff 	lea    -0x1c0(%rbp),%rdi
 54c:	e8 00 00 00 00       	callq  551 <rb_insert+0x191>
 551:	49 89 c4             	mov    %rax,%r12
 554:	48 85 c0             	test   %rax,%rax
 557:	74 13                	je     56c <rb_insert+0x1ac>
 559:	80 3d 00 00 00 00 00 	cmpb   $0x0,0x0(%rip)        # 560 <rb_insert+0x1a0>
 560:	0f 85 00 00 00 00    	jne    566 <rb_insert+0x1a6>
 566:	41 c6 44 24 1f 00    	movb   $0x0,0x1f(%r12)
 56c:	83 c3 01             	add    $0x1,%ebx
 56f:	48 8d bd 40 fe ff ff 	lea    -0x1c0(%rbp),%rdi
 576:	e8 00 00 00 00       	callq  57b <rb_insert+0x1bb>
 57b:	39 d8                	cmp    %ebx,%eax
 57d:	7f c4                	jg     543 <rb_insert+0x183>
 57f:	80 3d 00 00 00 00 00 	cmpb   $0x0,0x0(%rip)        # 586 <rb_insert+0x1c6>
 586:	0f 85 00 00 00 00    	jne    58c <rb_insert+0x1cc>
 58c:	48 8d bd 40 fe ff ff 	lea    -0x1c0(%rbp),%rdi
 593:	e8 00 00 00 00       	callq  598 <rb_insert+0x1d8>
 598:	48 8b 45 d8          	mov    -0x28(%rbp),%rax
 59c:	65 48 33 04 25 28 00 	xor    %gs:0x28,%rax
 5a3:	00 00 
 5a5:	0f 85 08 01 00 00    	jne    6b3 <rb_insert+0x2f3>
 5ab:	48 81 c4 a0 01 00 00 	add    $0x1a0,%rsp
 5b2:	5b                   	pop    %rbx
 5b3:	41 5c                	pop    %r12
 5b5:	41 5d                	pop    %r13
 5b7:	41 5e                	pop    %r14
 5b9:	5d                   	pop    %rbp
 5ba:	c3                   	retq   
 5bb:	e8 00 00 00 00       	callq  5c0 <rb_insert+0x200>
 5c0:	84 c0                	test   %al,%al
 5c2:	0f 85 cd 00 00 00    	jne    695 <rb_insert+0x2d5>
 5c8:	49 8b 1c 24          	mov    (%r12),%rbx
 5cc:	4c 89 e7             	mov    %r12,%rdi
 5cf:	e8 00 00 00 00       	callq  5d4 <rb_insert+0x214>
 5d4:	4c 89 ef             	mov    %r13,%rdi
 5d7:	48 8b 03             	mov    (%rbx),%rax
 5da:	c6 40 1c 00          	movb   $0x0,0x1c(%rax)
 5de:	48 8b 33             	mov    (%rbx),%rsi
 5e1:	c6 43 1c 01          	movb   $0x1,0x1c(%rbx)
 5e5:	e8 00 00 00 00       	callq  5ea <rb_insert+0x22a>
 5ea:	e9 50 ff ff ff       	jmpq   53f <rb_insert+0x17f>
 5ef:	41 c6 44 24 1c 01    	movb   $0x1,0x1c(%r12)
 5f5:	45 31 e4             	xor    %r12d,%r12d
 5f8:	eb 2c                	jmp    626 <rb_insert+0x266>
 5fa:	44 89 e6             	mov    %r12d,%esi
 5fd:	48 8d bd 40 fe ff ff 	lea    -0x1c0(%rbp),%rdi
 604:	e8 00 00 00 00       	callq  609 <rb_insert+0x249>
 609:	48 89 c3             	mov    %rax,%rbx
 60c:	48 85 c0             	test   %rax,%rax
 60f:	74 11                	je     622 <rb_insert+0x262>
 611:	80 3d 00 00 00 00 00 	cmpb   $0x0,0x0(%rip)        # 618 <rb_insert+0x258>
 618:	0f 85 00 00 00 00    	jne    61e <rb_insert+0x25e>
 61e:	c6 43 1f 00          	movb   $0x0,0x1f(%rbx)
 622:	41 83 c4 01          	add    $0x1,%r12d
 626:	48 8d bd 40 fe ff ff 	lea    -0x1c0(%rbp),%rdi
 62d:	e8 00 00 00 00       	callq  632 <rb_insert+0x272>
 632:	44 39 e0             	cmp    %r12d,%eax
 635:	7f c3                	jg     5fa <rb_insert+0x23a>
 637:	80 3d 00 00 00 00 00 	cmpb   $0x0,0x0(%rip)        # 63e <rb_insert+0x27e>
 63e:	0f 84 54 ff ff ff    	je     598 <rb_insert+0x1d8>
 644:	e9 00 00 00 00       	jmpq   649 <rb_insert+0x289>
 649:	45 31 f6             	xor    %r14d,%r14d
 64c:	31 f6                	xor    %esi,%esi
 64e:	e9 47 fe ff ff       	jmpq   49a <rb_insert+0xda>
 653:	49 8b 76 10          	mov    0x10(%r14),%rsi
 657:	e9 3e fe ff ff       	jmpq   49a <rb_insert+0xda>
 65c:	c6 43 1c 01          	movb   $0x1,0x1c(%rbx)
 660:	4c 89 e7             	mov    %r12,%rdi
 663:	48 8d b5 40 fe ff ff 	lea    -0x1c0(%rbp),%rsi
 66a:	c6 40 1c 01          	movb   $0x1,0x1c(%rax)
 66e:	48 8b 03             	mov    (%rbx),%rax
 671:	c6 40 1c 00          	movb   $0x0,0x1c(%rax)
 675:	e8 00 00 00 00       	callq  67a <rb_insert+0x2ba>
 67a:	49 89 c4             	mov    %rax,%r12
 67d:	e9 46 fe ff ff       	jmpq   4c8 <rb_insert+0x108>
 682:	48 89 de             	mov    %rbx,%rsi
 685:	4c 89 ef             	mov    %r13,%rdi
 688:	49 89 dc             	mov    %rbx,%r12
 68b:	e8 00 00 00 00       	callq  690 <rb_insert+0x2d0>
 690:	e9 88 fe ff ff       	jmpq   51d <rb_insert+0x15d>
 695:	48 89 de             	mov    %rbx,%rsi
 698:	4c 89 ef             	mov    %r13,%rdi
 69b:	49 89 dc             	mov    %rbx,%r12
 69e:	e8 00 00 00 00       	callq  6a3 <rb_insert+0x2e3>
 6a3:	e9 20 ff ff ff       	jmpq   5c8 <rb_insert+0x208>
 6a8:	41 c6 44 24 1c 01    	movb   $0x1,0x1c(%r12)
 6ae:	e9 8c fe ff ff       	jmpq   53f <rb_insert+0x17f>
 6b3:	e8 00 00 00 00       	callq  6b8 <rb_insert+0x2f8>
 6b8:	0f 1f 84 00 00 00 00 	nopl   0x0(%rax,%rax,1)
 6bf:	00 

00000000000006c0 <rb_remove_fixup>:
 6c0:	e8 00 00 00 00       	callq  6c5 <rb_remove_fixup+0x5>
 6c5:	55                   	push   %rbp
 6c6:	48 89 e5             	mov    %rsp,%rbp
 6c9:	41 56                	push   %r14
 6cb:	49 89 fe             	mov    %rdi,%r14
 6ce:	41 55                	push   %r13
 6d0:	41 54                	push   %r12
 6d2:	49 89 f4             	mov    %rsi,%r12
 6d5:	4c 89 e6             	mov    %r12,%rsi
 6d8:	4c 89 f7             	mov    %r14,%rdi
 6db:	e8 00 00 00 00       	callq  6e0 <rb_remove_fixup+0x20>
 6e0:	84 c0                	test   %al,%al
 6e2:	0f 85 92 00 00 00    	jne    77a <rb_remove_fixup+0xba>
 6e8:	41 80 7c 24 1c 01    	cmpb   $0x1,0x1c(%r12)
 6ee:	0f 85 54 02 00 00    	jne    948 <rb_remove_fixup+0x288>
 6f4:	4c 89 e7             	mov    %r12,%rdi
 6f7:	e8 00 00 00 00       	callq  6fc <rb_remove_fixup+0x3c>
 6fc:	84 c0                	test   %al,%al
 6fe:	49 8b 04 24          	mov    (%r12),%rax
 702:	0f 84 92 00 00 00    	je     79a <rb_remove_fixup+0xda>
 708:	4c 8b 68 10          	mov    0x10(%rax),%r13
 70c:	41 80 7d 1c 00       	cmpb   $0x0,0x1c(%r13)
 711:	0f 84 71 01 00 00    	je     888 <rb_remove_fixup+0x1c8>
 717:	49 8b 45 08          	mov    0x8(%r13),%rax
 71b:	49 8b 55 10          	mov    0x10(%r13),%rdx
 71f:	80 78 1c 01          	cmpb   $0x1,0x1c(%rax)
 723:	0f b6 52 1c          	movzbl 0x1c(%rdx),%edx
 727:	0f 84 d4 00 00 00    	je     801 <rb_remove_fixup+0x141>
 72d:	80 fa 01             	cmp    $0x1,%dl
 730:	0f 85 d4 00 00 00    	jne    80a <rb_remove_fixup+0x14a>
 736:	c6 40 1c 01          	movb   $0x1,0x1c(%rax)
 73a:	4c 89 ee             	mov    %r13,%rsi
 73d:	4c 89 f7             	mov    %r14,%rdi
 740:	41 c6 45 1c 00       	movb   $0x0,0x1c(%r13)
 745:	e8 00 00 00 00       	callq  74a <rb_remove_fixup+0x8a>
 74a:	49 8b 04 24          	mov    (%r12),%rax
 74e:	4c 89 e7             	mov    %r12,%rdi
 751:	48 8b 70 10          	mov    0x10(%rax),%rsi
 755:	e8 00 00 00 00       	callq  75a <rb_remove_fixup+0x9a>
 75a:	80 3d 00 00 00 00 00 	cmpb   $0x0,0x0(%rip)        # 761 <rb_remove_fixup+0xa1>
 761:	0f 85 00 00 00 00    	jne    767 <rb_remove_fixup+0xa7>
 767:	4c 89 e6             	mov    %r12,%rsi
 76a:	4c 89 f7             	mov    %r14,%rdi
 76d:	e8 00 00 00 00       	callq  772 <rb_remove_fixup+0xb2>
 772:	84 c0                	test   %al,%al
 774:	0f 84 6e ff ff ff    	je     6e8 <rb_remove_fixup+0x28>
 77a:	0f b6 05 00 00 00 00 	movzbl 0x0(%rip),%eax        # 781 <rb_remove_fixup+0xc1>
 781:	41 c6 44 24 1c 01    	movb   $0x1,0x1c(%r12)
 787:	84 c0                	test   %al,%al
 789:	0f 85 00 00 00 00    	jne    78f <rb_remove_fixup+0xcf>
 78f:	4c 89 e0             	mov    %r12,%rax
 792:	41 5c                	pop    %r12
 794:	41 5d                	pop    %r13
 796:	41 5e                	pop    %r14
 798:	5d                   	pop    %rbp
 799:	c3                   	retq   
 79a:	4c 8b 68 08          	mov    0x8(%rax),%r13
 79e:	41 80 7d 1c 00       	cmpb   $0x0,0x1c(%r13)
 7a3:	0f 84 1d 01 00 00    	je     8c6 <rb_remove_fixup+0x206>
 7a9:	49 8b 45 08          	mov    0x8(%r13),%rax
 7ad:	80 78 1c 01          	cmpb   $0x1,0x1c(%rax)
 7b1:	0f 84 8d 00 00 00    	je     844 <rb_remove_fixup+0x184>
 7b7:	49 8b 04 24          	mov    (%r12),%rax
 7bb:	4c 89 f7             	mov    %r14,%rdi
 7be:	0f b6 40 1c          	movzbl 0x1c(%rax),%eax
 7c2:	41 88 45 1c          	mov    %al,0x1c(%r13)
 7c6:	49 8b 04 24          	mov    (%r12),%rax
 7ca:	c6 40 1c 01          	movb   $0x1,0x1c(%rax)
 7ce:	49 8b 45 08          	mov    0x8(%r13),%rax
 7d2:	c6 40 1c 01          	movb   $0x1,0x1c(%rax)
 7d6:	49 8b 34 24          	mov    (%r12),%rsi
 7da:	e8 00 00 00 00       	callq  7df <rb_remove_fixup+0x11f>
 7df:	80 3d 00 00 00 00 00 	cmpb   $0x0,0x0(%rip)        # 7e6 <rb_remove_fixup+0x126>
 7e6:	4d 8b 24 24          	mov    (%r12),%r12
 7ea:	0f 85 00 00 00 00    	jne    7f0 <rb_remove_fixup+0x130>
 7f0:	41 c6 44 24 1c 01    	movb   $0x1,0x1c(%r12)
 7f6:	4c 89 e0             	mov    %r12,%rax
 7f9:	41 5c                	pop    %r12
 7fb:	41 5d                	pop    %r13
 7fd:	41 5e                	pop    %r14
 7ff:	5d                   	pop    %rbp
 800:	c3                   	retq   
 801:	80 fa 01             	cmp    $0x1,%dl
 804:	0f 84 fa 00 00 00    	je     904 <rb_remove_fixup+0x244>
 80a:	49 8b 04 24          	mov    (%r12),%rax
 80e:	4c 89 f7             	mov    %r14,%rdi
 811:	0f b6 40 1c          	movzbl 0x1c(%rax),%eax
 815:	41 88 45 1c          	mov    %al,0x1c(%r13)
 819:	49 8b 04 24          	mov    (%r12),%rax
 81d:	c6 40 1c 01          	movb   $0x1,0x1c(%rax)
 821:	49 8b 45 10          	mov    0x10(%r13),%rax
 825:	c6 40 1c 01          	movb   $0x1,0x1c(%rax)
 829:	49 8b 34 24          	mov    (%r12),%rsi
 82d:	e8 00 00 00 00       	callq  832 <rb_remove_fixup+0x172>
 832:	80 3d 00 00 00 00 00 	cmpb   $0x0,0x0(%rip)        # 839 <rb_remove_fixup+0x179>
 839:	4d 8b 24 24          	mov    (%r12),%r12
 83d:	74 b1                	je     7f0 <rb_remove_fixup+0x130>
 83f:	e9 00 00 00 00       	jmpq   844 <rb_remove_fixup+0x184>
 844:	49 8b 45 10          	mov    0x10(%r13),%rax
 848:	80 78 1c 01          	cmpb   $0x1,0x1c(%rax)
 84c:	0f 84 d4 00 00 00    	je     926 <rb_remove_fixup+0x266>
 852:	c6 40 1c 01          	movb   $0x1,0x1c(%rax)
 856:	4c 89 ee             	mov    %r13,%rsi
 859:	4c 89 f7             	mov    %r14,%rdi
 85c:	41 c6 45 1c 00       	movb   $0x0,0x1c(%r13)
 861:	e8 00 00 00 00       	callq  866 <rb_remove_fixup+0x1a6>
 866:	49 8b 04 24          	mov    (%r12),%rax
 86a:	4c 89 e7             	mov    %r12,%rdi
 86d:	48 8b 70 08          	mov    0x8(%rax),%rsi
 871:	e8 00 00 00 00       	callq  876 <rb_remove_fixup+0x1b6>
 876:	80 3d 00 00 00 00 00 	cmpb   $0x0,0x0(%rip)        # 87d <rb_remove_fixup+0x1bd>
 87d:	0f 84 52 fe ff ff    	je     6d5 <rb_remove_fixup+0x15>
 883:	e9 00 00 00 00       	jmpq   888 <rb_remove_fixup+0x1c8>
 888:	41 c6 45 1c 01       	movb   $0x1,0x1c(%r13)
 88d:	49 8b 04 24          	mov    (%r12),%rax
 891:	4c 89 f7             	mov    %r14,%rdi
 894:	c6 40 1c 00          	movb   $0x0,0x1c(%rax)
 898:	49 8b 34 24          	mov    (%r12),%rsi
 89c:	e8 00 00 00 00       	callq  8a1 <rb_remove_fixup+0x1e1>
 8a1:	49 8b 04 24          	mov    (%r12),%rax
 8a5:	4c 89 e7             	mov    %r12,%rdi
 8a8:	4c 8b 68 10          	mov    0x10(%rax),%r13
 8ac:	4c 89 ee             	mov    %r13,%rsi
 8af:	e8 00 00 00 00       	callq  8b4 <rb_remove_fixup+0x1f4>
 8b4:	80 3d 00 00 00 00 00 	cmpb   $0x0,0x0(%rip)        # 8bb <rb_remove_fixup+0x1fb>
 8bb:	0f 84 56 fe ff ff    	je     717 <rb_remove_fixup+0x57>
 8c1:	e9 00 00 00 00       	jmpq   8c6 <rb_remove_fixup+0x206>
 8c6:	41 c6 45 1c 01       	movb   $0x1,0x1c(%r13)
 8cb:	49 8b 04 24          	mov    (%r12),%rax
 8cf:	4c 89 f7             	mov    %r14,%rdi
 8d2:	c6 40 1c 00          	movb   $0x0,0x1c(%rax)
 8d6:	49 8b 34 24          	mov    (%r12),%rsi
 8da:	e8 00 00 00 00       	callq  8df <rb_remove_fixup+0x21f>
 8df:	49 8b 04 24          	mov    (%r12),%rax
 8e3:	4c 89 e7             	mov    %r12,%rdi
 8e6:	4c 8b 68 08          	mov    0x8(%rax),%r13
 8ea:	4c 89 ee             	mov    %r13,%rsi
 8ed:	e8 00 00 00 00       	callq  8f2 <rb_remove_fixup+0x232>
 8f2:	80 3d 00 00 00 00 00 	cmpb   $0x0,0x0(%rip)        # 8f9 <rb_remove_fixup+0x239>
 8f9:	0f 84 aa fe ff ff    	je     7a9 <rb_remove_fixup+0xe9>
 8ff:	e9 00 00 00 00       	jmpq   904 <rb_remove_fixup+0x244>
 904:	41 c6 45 1c 00       	movb   $0x0,0x1c(%r13)
 909:	4c 89 e7             	mov    %r12,%rdi
 90c:	e8 00 00 00 00       	callq  911 <rb_remove_fixup+0x251>
 911:	80 3d 00 00 00 00 00 	cmpb   $0x0,0x0(%rip)        # 918 <rb_remove_fixup+0x258>
 918:	49 89 c4             	mov    %rax,%r12
 91b:	0f 84 b4 fd ff ff    	je     6d5 <rb_remove_fixup+0x15>
 921:	e9 00 00 00 00       	jmpq   926 <rb_remove_fixup+0x266>
 926:	41 c6 45 1c 00       	movb   $0x0,0x1c(%r13)
 92b:	4c 89 e7             	mov    %r12,%rdi
 92e:	e8 00 00 00 00       	callq  933 <rb_remove_fixup+0x273>
 933:	80 3d 00 00 00 00 00 	cmpb   $0x0,0x0(%rip)        # 93a <rb_remove_fixup+0x27a>
 93a:	49 89 c4             	mov    %rax,%r12
 93d:	0f 84 92 fd ff ff    	je     6d5 <rb_remove_fixup+0x15>
 943:	e9 00 00 00 00       	jmpq   948 <rb_remove_fixup+0x288>
 948:	0f b6 05 00 00 00 00 	movzbl 0x0(%rip),%eax        # 94f <rb_remove_fixup+0x28f>
 94f:	e9 2d fe ff ff       	jmpq   781 <rb_remove_fixup+0xc1>
 954:	66 66 2e 0f 1f 84 00 	data16 nopw %cs:0x0(%rax,%rax,1)
 95b:	00 00 00 00 
 95f:	90                   	nop

0000000000000960 <rb_remove>:
 960:	e8 00 00 00 00       	callq  965 <rb_remove+0x5>
 965:	55                   	push   %rbp
 966:	80 3d 00 00 00 00 00 	cmpb   $0x0,0x0(%rip)        # 96d <rb_remove+0xd>
 96d:	48 89 e5             	mov    %rsp,%rbp
 970:	41 57                	push   %r15
 972:	41 56                	push   %r14
 974:	41 89 f6             	mov    %esi,%r14d
 977:	41 55                	push   %r13
 979:	49 89 fd             	mov    %rdi,%r13
 97c:	41 54                	push   %r12
 97e:	53                   	push   %rbx
 97f:	0f 85 00 00 00 00    	jne    985 <rb_remove+0x25>
 985:	e8 00 00 00 00       	callq  98a <rb_remove+0x2a>
 98a:	44 89 f6             	mov    %r14d,%esi
 98d:	4c 89 ef             	mov    %r13,%rdi
 990:	e8 00 00 00 00       	callq  995 <rb_remove+0x35>
 995:	48 89 c3             	mov    %rax,%rbx
 998:	48 85 c0             	test   %rax,%rax
 99b:	0f 84 97 00 00 00    	je     a38 <rb_remove+0xd8>
 9a1:	48 8b 40 08          	mov    0x8(%rax),%rax
 9a5:	80 78 1d 00          	cmpb   $0x0,0x1d(%rax)
 9a9:	75 0e                	jne    9b9 <rb_remove+0x59>
 9ab:	48 8b 43 10          	mov    0x10(%rbx),%rax
 9af:	80 78 1d 00          	cmpb   $0x0,0x1d(%rax)
 9b3:	0f 84 8e 00 00 00    	je     a47 <rb_remove+0xe7>
 9b9:	48 89 de             	mov    %rbx,%rsi
 9bc:	48 89 df             	mov    %rbx,%rdi
 9bf:	e8 00 00 00 00       	callq  9c4 <rb_remove+0x64>
 9c4:	84 c0                	test   %al,%al
 9c6:	0f 84 a9 00 00 00    	je     a75 <rb_remove+0x115>
 9cc:	80 3d 00 00 00 00 00 	cmpb   $0x0,0x0(%rip)        # 9d3 <rb_remove+0x73>
 9d3:	0f 85 00 00 00 00    	jne    9d9 <rb_remove+0x79>
 9d9:	48 89 de             	mov    %rbx,%rsi
 9dc:	4c 89 ef             	mov    %r13,%rdi
 9df:	49 89 dc             	mov    %rbx,%r12
 9e2:	e8 00 00 00 00       	callq  9e7 <rb_remove+0x87>
 9e7:	49 89 c7             	mov    %rax,%r15
 9ea:	48 89 df             	mov    %rbx,%rdi
 9ed:	e8 00 00 00 00       	callq  9f2 <rb_remove+0x92>
 9f2:	84 c0                	test   %al,%al
 9f4:	75 11                	jne    a07 <rb_remove+0xa7>
 9f6:	80 3d 00 00 00 00 00 	cmpb   $0x0,0x0(%rip)        # 9fd <rb_remove+0x9d>
 9fd:	c6 43 1f 00          	movb   $0x0,0x1f(%rbx)
 a01:	0f 85 00 00 00 00    	jne    a07 <rb_remove+0xa7>
 a07:	41 80 7c 24 1c 01    	cmpb   $0x1,0x1c(%r12)
 a0d:	74 6f                	je     a7e <rb_remove+0x11e>
 a0f:	49 8b 3f             	mov    (%r15),%rdi
 a12:	48 89 de             	mov    %rbx,%rsi
 a15:	e8 00 00 00 00       	callq  a1a <rb_remove+0xba>
 a1a:	84 c0                	test   %al,%al
 a1c:	74 f1                	je     a0f <rb_remove+0xaf>
 a1e:	e8 00 00 00 00       	callq  a23 <rb_remove+0xc3>
 a23:	80 3d 00 00 00 00 00 	cmpb   $0x0,0x0(%rip)        # a2a <rb_remove+0xca>
 a2a:	0f 85 00 00 00 00    	jne    a30 <rb_remove+0xd0>
 a30:	4c 89 e7             	mov    %r12,%rdi
 a33:	e8 00 00 00 00       	callq  a38 <rb_remove+0xd8>
 a38:	48 8d 65 d8          	lea    -0x28(%rbp),%rsp
 a3c:	5b                   	pop    %rbx
 a3d:	41 5c                	pop    %r12
 a3f:	41 5d                	pop    %r13
 a41:	41 5e                	pop    %r14
 a43:	41 5f                	pop    %r15
 a45:	5d                   	pop    %rbp
 a46:	c3                   	retq   
 a47:	48 89 df             	mov    %rbx,%rdi
 a4a:	e8 00 00 00 00       	callq  a4f <rb_remove+0xef>
 a4f:	49 89 c4             	mov    %rax,%r12
 a52:	48 85 c0             	test   %rax,%rax
 a55:	74 1e                	je     a75 <rb_remove+0x115>
 a57:	48 89 de             	mov    %rbx,%rsi
 a5a:	48 89 c7             	mov    %rax,%rdi
 a5d:	e8 00 00 00 00       	callq  a62 <rb_remove+0x102>
 a62:	84 c0                	test   %al,%al
 a64:	75 2e                	jne    a94 <rb_remove+0x134>
 a66:	41 c6 44 24 1f 00    	movb   $0x0,0x1f(%r12)
 a6c:	4c 39 e3             	cmp    %r12,%rbx
 a6f:	0f 84 15 ff ff ff    	je     98a <rb_remove+0x2a>
 a75:	c6 43 1f 00          	movb   $0x0,0x1f(%rbx)
 a79:	e9 0c ff ff ff       	jmpq   98a <rb_remove+0x2a>
 a7e:	4c 89 fe             	mov    %r15,%rsi
 a81:	48 89 da             	mov    %rbx,%rdx
 a84:	4c 89 ef             	mov    %r13,%rdi
 a87:	e8 00 00 00 00       	callq  a8c <rb_remove+0x12c>
 a8c:	49 89 c7             	mov    %rax,%r15
 a8f:	e9 7b ff ff ff       	jmpq   a0f <rb_remove+0xaf>
 a94:	80 3d 00 00 00 00 00 	cmpb   $0x0,0x0(%rip)        # a9b <rb_remove+0x13b>
 a9b:	75 24                	jne    ac1 <rb_remove+0x161>
 a9d:	4c 89 e6             	mov    %r12,%rsi
 aa0:	4c 89 ef             	mov    %r13,%rdi
 aa3:	e8 00 00 00 00       	callq  aa8 <rb_remove+0x148>
 aa8:	49 89 c7             	mov    %rax,%r15
 aab:	4c 39 e3             	cmp    %r12,%rbx
 aae:	0f 84 36 ff ff ff    	je     9ea <rb_remove+0x8a>
 ab4:	41 8b 44 24 18       	mov    0x18(%r12),%eax
 ab9:	89 43 18             	mov    %eax,0x18(%rbx)
 abc:	e9 29 ff ff ff       	jmpq   9ea <rb_remove+0x8a>
 ac1:	e9 00 00 00 00       	jmpq   ac6 <rb_remove+0x166>
 ac6:	66 2e 0f 1f 84 00 00 	nopw   %cs:0x0(%rax,%rax,1)
 acd:	00 00 00 

0000000000000ad0 <tree_search>:
 ad0:	e8 00 00 00 00       	callq  ad5 <tree_search+0x5>
 ad5:	55                   	push   %rbp
 ad6:	48 89 e5             	mov    %rsp,%rbp
 ad9:	41 54                	push   %r12
 adb:	e8 00 00 00 00       	callq  ae0 <tree_search+0x10>
 ae0:	80 3d 00 00 00 00 00 	cmpb   $0x0,0x0(%rip)        # ae7 <tree_search+0x17>
 ae7:	49 89 c4             	mov    %rax,%r12
 aea:	0f 85 00 00 00 00    	jne    af0 <tree_search+0x20>
 af0:	4c 89 e0             	mov    %r12,%rax
 af3:	41 5c                	pop    %r12
 af5:	5d                   	pop    %rbp
 af6:	c3                   	retq   

Disassembly of section .text.unlikely:

0000000000000000 <left_rotate.cold>:
   0:	48 c7 c7 00 00 00 00 	mov    $0x0,%rdi
   7:	e8 00 00 00 00       	callq  c <left_rotate.cold+0xc>
   c:	bf 01 00 00 00       	mov    $0x1,%edi
  11:	e8 00 00 00 00       	callq  16 <left_rotate.cold+0x16>
  16:	48 8b 05 00 00 00 00 	mov    0x0(%rip),%rax        # 1d <left_rotate.cold+0x1d>
  1d:	49 c7 c0 00 00 00 00 	mov    $0x0,%r8
  24:	b9 54 00 00 00       	mov    $0x54,%ecx
  29:	48 c7 c2 00 00 00 00 	mov    $0x0,%rdx
  30:	48 c7 c7 00 00 00 00 	mov    $0x0,%rdi
  37:	64 48 8b 30          	mov    %fs:(%rax),%rsi
  3b:	e8 00 00 00 00       	callq  40 <left_rotate.cold+0x40>
  40:	e9 00 00 00 00       	jmpq   45 <left_rotate.cold+0x45>
  45:	48 c7 c7 00 00 00 00 	mov    $0x0,%rdi
  4c:	e8 00 00 00 00       	callq  51 <left_rotate.cold+0x51>
  51:	bf 01 00 00 00       	mov    $0x1,%edi
  56:	e8 00 00 00 00       	callq  5b <right_rotate.cold>

000000000000005b <right_rotate.cold>:
  5b:	48 c7 c7 00 00 00 00 	mov    $0x0,%rdi
  62:	e8 00 00 00 00       	callq  67 <right_rotate.cold+0xc>
  67:	bf 01 00 00 00       	mov    $0x1,%edi
  6c:	e8 00 00 00 00       	callq  71 <right_rotate.cold+0x16>
  71:	48 8b 05 00 00 00 00 	mov    0x0(%rip),%rax        # 78 <right_rotate.cold+0x1d>
  78:	49 c7 c0 00 00 00 00 	mov    $0x0,%r8
  7f:	b9 7a 00 00 00       	mov    $0x7a,%ecx
  84:	48 c7 c2 00 00 00 00 	mov    $0x0,%rdx
  8b:	48 c7 c7 00 00 00 00 	mov    $0x0,%rdi
  92:	64 48 8b 30          	mov    %fs:(%rax),%rsi
  96:	e8 00 00 00 00       	callq  9b <right_rotate.cold+0x40>
  9b:	e9 00 00 00 00       	jmpq   a0 <right_rotate.cold+0x45>
  a0:	48 c7 c7 00 00 00 00 	mov    $0x0,%rdi
  a7:	e8 00 00 00 00       	callq  ac <right_rotate.cold+0x51>
  ac:	bf 01 00 00 00       	mov    $0x1,%edi
  b1:	e8 00 00 00 00       	callq  b6 <tree_insert.cold>

00000000000000b6 <tree_insert.cold>:
  b6:	4c 8b 1d 00 00 00 00 	mov    0x0(%rip),%r11        # bd <tree_insert.cold+0x7>
  bd:	49 89 d9             	mov    %rbx,%r9
  c0:	49 c7 c0 00 00 00 00 	mov    $0x0,%r8
  c7:	b9 bd 00 00 00       	mov    $0xbd,%ecx
  cc:	48 c7 c2 00 00 00 00 	mov    $0x0,%rdx
  d3:	48 c7 c7 00 00 00 00 	mov    $0x0,%rdi
  da:	64 49 8b 33          	mov    %fs:(%r11),%rsi
  de:	e8 00 00 00 00       	callq  e3 <tree_insert.cold+0x2d>
  e3:	80 7b 1d 00          	cmpb   $0x0,0x1d(%rbx)
  e7:	0f 85 00 00 00 00    	jne    ed <tree_insert.cold+0x37>
  ed:	80 3d 00 00 00 00 00 	cmpb   $0x0,0x0(%rip)        # f4 <tree_insert.cold+0x3e>
  f4:	4c 8b 1d 00 00 00 00 	mov    0x0(%rip),%r11        # fb <tree_insert.cold+0x45>
  fb:	0f 84 00 00 00 00    	je     101 <tree_insert.cold+0x4b>
 101:	64 49 8b 33          	mov    %fs:(%r11),%rsi
 105:	4d 89 e1             	mov    %r12,%r9
 108:	49 c7 c0 00 00 00 00 	mov    $0x0,%r8
 10f:	b9 c1 00 00 00       	mov    $0xc1,%ecx
 114:	48 c7 c2 00 00 00 00 	mov    $0x0,%rdx
 11b:	48 c7 c7 00 00 00 00 	mov    $0x0,%rdi
 122:	e8 00 00 00 00       	callq  127 <tree_insert.cold+0x71>
 127:	e9 00 00 00 00       	jmpq   12c <tree_insert.cold+0x76>
 12c:	48 8b 05 00 00 00 00 	mov    0x0(%rip),%rax        # 133 <tree_insert.cold+0x7d>
 133:	4d 89 e1             	mov    %r12,%r9
 136:	49 c7 c0 00 00 00 00 	mov    $0x0,%r8
 13d:	b9 a8 00 00 00       	mov    $0xa8,%ecx
 142:	48 c7 c2 00 00 00 00 	mov    $0x0,%rdx
 149:	48 c7 c7 00 00 00 00 	mov    $0x0,%rdi
 150:	64 48 8b 30          	mov    %fs:(%rax),%rsi
 154:	e8 00 00 00 00       	callq  159 <tree_insert.cold+0xa3>
 159:	e9 00 00 00 00       	jmpq   15e <tree_insert.cold+0xa8>
 15e:	48 8b 05 00 00 00 00 	mov    0x0(%rip),%rax        # 165 <tree_insert.cold+0xaf>
 165:	4c 8b 4d d0          	mov    -0x30(%rbp),%r9
 169:	49 c7 c0 00 00 00 00 	mov    $0x0,%r8
 170:	b9 91 00 00 00       	mov    $0x91,%ecx
 175:	48 c7 c2 00 00 00 00 	mov    $0x0,%rdx
 17c:	48 c7 c7 00 00 00 00 	mov    $0x0,%rdi
 183:	64 48 8b 30          	mov    %fs:(%rax),%rsi
 187:	e8 00 00 00 00       	callq  18c <tree_insert.cold+0xd6>
 18c:	e9 00 00 00 00       	jmpq   191 <tree_insert.cold+0xdb>
 191:	48 8b 1d 00 00 00 00 	mov    0x0(%rip),%rbx        # 198 <tree_insert.cold+0xe2>
 198:	45 89 f1             	mov    %r14d,%r9d
 19b:	49 c7 c0 00 00 00 00 	mov    $0x0,%r8
 1a2:	b9 94 00 00 00       	mov    $0x94,%ecx
 1a7:	48 c7 c2 00 00 00 00 	mov    $0x0,%rdx
 1ae:	48 c7 c7 00 00 00 00 	mov    $0x0,%rdi
 1b5:	64 48 8b 33          	mov    %fs:(%rbx),%rsi
 1b9:	e8 00 00 00 00       	callq  1be <tree_insert.cold+0x108>
 1be:	80 3d 00 00 00 00 00 	cmpb   $0x0,0x0(%rip)        # 1c5 <tree_insert.cold+0x10f>
 1c5:	0f 84 00 00 00 00    	je     1cb <tree_insert.cold+0x115>
 1cb:	64 48 8b 33          	mov    %fs:(%rbx),%rsi
 1cf:	4d 89 e9             	mov    %r13,%r9
 1d2:	49 c7 c0 00 00 00 00 	mov    $0x0,%r8
 1d9:	b9 95 00 00 00       	mov    $0x95,%ecx
 1de:	48 c7 c2 00 00 00 00 	mov    $0x0,%rdx
 1e5:	48 c7 c7 00 00 00 00 	mov    $0x0,%rdi
 1ec:	e8 00 00 00 00       	callq  1f1 <tree_insert.cold+0x13b>
 1f1:	e9 00 00 00 00       	jmpq   1f6 <tree_insert.cold+0x140>
 1f6:	48 8b 05 00 00 00 00 	mov    0x0(%rip),%rax        # 1fd <tree_insert.cold+0x147>
 1fd:	45 89 f1             	mov    %r14d,%r9d
 200:	49 c7 c0 00 00 00 00 	mov    $0x0,%r8
 207:	b9 da 00 00 00       	mov    $0xda,%ecx
 20c:	48 c7 c2 00 00 00 00 	mov    $0x0,%rdx
 213:	48 c7 c7 00 00 00 00 	mov    $0x0,%rdi
 21a:	64 48 8b 30          	mov    %fs:(%rax),%rsi
 21e:	e8 00 00 00 00       	callq  223 <tree_insert.cold+0x16d>
 223:	e9 00 00 00 00       	jmpq   228 <tree_insert.cold+0x172>
 228:	48 8b 05 00 00 00 00 	mov    0x0(%rip),%rax        # 22f <tree_insert.cold+0x179>
 22f:	4d 89 e1             	mov    %r12,%r9
 232:	49 c7 c0 00 00 00 00 	mov    $0x0,%r8
 239:	b9 a4 00 00 00       	mov    $0xa4,%ecx
 23e:	48 c7 c2 00 00 00 00 	mov    $0x0,%rdx
 245:	48 c7 c7 00 00 00 00 	mov    $0x0,%rdi
 24c:	64 48 8b 30          	mov    %fs:(%rax),%rsi
 250:	e8 00 00 00 00       	callq  255 <tree_insert.cold+0x19f>
 255:	e9 00 00 00 00       	jmpq   25a <tree_insert.cold+0x1a4>
 25a:	48 8b 1d 00 00 00 00 	mov    0x0(%rip),%rbx        # 261 <tree_insert.cold+0x1ab>
 261:	4d 89 e9             	mov    %r13,%r9
 264:	49 c7 c0 00 00 00 00 	mov    $0x0,%r8
 26b:	b9 8b 00 00 00       	mov    $0x8b,%ecx
 270:	48 c7 c2 00 00 00 00 	mov    $0x0,%rdx
 277:	48 c7 c7 00 00 00 00 	mov    $0x0,%rdi
 27e:	64 48 8b 33          	mov    %fs:(%rbx),%rsi
 282:	e8 00 00 00 00       	callq  287 <tree_insert.cold+0x1d1>
 287:	4d 8b 65 08          	mov    0x8(%r13),%r12
 28b:	41 80 7c 24 1d 00    	cmpb   $0x0,0x1d(%r12)
 291:	0f 85 00 00 00 00    	jne    297 <tree_insert.cold+0x1e1>
 297:	80 3d 00 00 00 00 00 	cmpb   $0x0,0x0(%rip)        # 29e <tree_insert.cold+0x1e8>
 29e:	0f 84 00 00 00 00    	je     2a4 <tree_insert.cold+0x1ee>
 2a4:	64 48 8b 33          	mov    %fs:(%rbx),%rsi
 2a8:	4d 89 e9             	mov    %r13,%r9
 2ab:	49 c7 c0 00 00 00 00 	mov    $0x0,%r8
 2b2:	b9 9b 00 00 00       	mov    $0x9b,%ecx
 2b7:	48 c7 c2 00 00 00 00 	mov    $0x0,%rdx
 2be:	48 c7 c7 00 00 00 00 	mov    $0x0,%rdi
 2c5:	e8 00 00 00 00       	callq  2ca <tree_insert.cold+0x214>
 2ca:	4d 8b 65 08          	mov    0x8(%r13),%r12
 2ce:	e9 00 00 00 00       	jmpq   2d3 <tree_insert.cold+0x21d>
 2d3:	4c 8b 1d 00 00 00 00 	mov    0x0(%rip),%r11        # 2da <tree_insert.cold+0x224>
 2da:	49 89 d9             	mov    %rbx,%r9
 2dd:	49 c7 c0 00 00 00 00 	mov    $0x0,%r8
 2e4:	b9 b6 00 00 00       	mov    $0xb6,%ecx
 2e9:	48 c7 c2 00 00 00 00 	mov    $0x0,%rdx
 2f0:	48 c7 c7 00 00 00 00 	mov    $0x0,%rdi
 2f7:	64 49 8b 33          	mov    %fs:(%r11),%rsi
 2fb:	e8 00 00 00 00       	callq  300 <tree_insert.cold+0x24a>
 300:	80 3d 00 00 00 00 00 	cmpb   $0x0,0x0(%rip)        # 307 <tree_insert.cold+0x251>
 307:	4c 8b 1d 00 00 00 00 	mov    0x0(%rip),%r11        # 30e <tree_insert.cold+0x258>
 30e:	0f 84 00 00 00 00    	je     314 <tree_insert.cold+0x25e>
 314:	64 49 8b 33          	mov    %fs:(%r11),%rsi
 318:	4d 89 e1             	mov    %r12,%r9
 31b:	49 c7 c0 00 00 00 00 	mov    $0x0,%r8
 322:	b9 b7 00 00 00       	mov    $0xb7,%ecx
 327:	48 c7 c2 00 00 00 00 	mov    $0x0,%rdx
 32e:	48 c7 c7 00 00 00 00 	mov    $0x0,%rdi
 335:	e8 00 00 00 00       	callq  33a <tree_insert.cold+0x284>
 33a:	e9 00 00 00 00       	jmpq   33f <tree_insert.cold+0x289>
 33f:	48 8b 05 00 00 00 00 	mov    0x0(%rip),%rax        # 346 <tree_insert.cold+0x290>
 346:	4d 89 e1             	mov    %r12,%r9
 349:	49 c7 c0 00 00 00 00 	mov    $0x0,%r8
 350:	b9 c9 00 00 00       	mov    $0xc9,%ecx
 355:	48 c7 c2 00 00 00 00 	mov    $0x0,%rdx
 35c:	48 c7 c7 00 00 00 00 	mov    $0x0,%rdi
 363:	64 48 8b 30          	mov    %fs:(%rax),%rsi
 367:	53                   	push   %rbx
 368:	e8 00 00 00 00       	callq  36d <tree_insert.cold+0x2b7>
 36d:	58                   	pop    %rax
 36e:	e9 00 00 00 00       	jmpq   373 <rb_insert.cold>

0000000000000373 <rb_insert.cold>:
 373:	48 8b 05 00 00 00 00 	mov    0x0(%rip),%rax        # 37a <rb_insert.cold+0x7>
 37a:	49 89 d9             	mov    %rbx,%r9
 37d:	49 c7 c0 00 00 00 00 	mov    $0x0,%r8
 384:	b9 17 01 00 00       	mov    $0x117,%ecx
 389:	48 c7 c2 00 00 00 00 	mov    $0x0,%rdx
 390:	48 c7 c7 00 00 00 00 	mov    $0x0,%rdi
 397:	64 48 8b 30          	mov    %fs:(%rax),%rsi
 39b:	e8 00 00 00 00       	callq  3a0 <rb_insert.cold+0x2d>
 3a0:	e9 00 00 00 00       	jmpq   3a5 <rb_insert.cold+0x32>
 3a5:	48 8b 05 00 00 00 00 	mov    0x0(%rip),%rax        # 3ac <rb_insert.cold+0x39>
 3ac:	49 c7 c0 00 00 00 00 	mov    $0x0,%r8
 3b3:	b9 62 01 00 00       	mov    $0x162,%ecx
 3b8:	48 c7 c2 00 00 00 00 	mov    $0x0,%rdx
 3bf:	48 c7 c7 00 00 00 00 	mov    $0x0,%rdi
 3c6:	64 48 8b 30          	mov    %fs:(%rax),%rsi
 3ca:	e8 00 00 00 00       	callq  3cf <rb_insert.cold+0x5c>
 3cf:	e9 00 00 00 00       	jmpq   3d4 <rb_insert.cold+0x61>
 3d4:	48 8b 05 00 00 00 00 	mov    0x0(%rip),%rax        # 3db <rb_insert.cold+0x68>
 3db:	49 c7 c0 00 00 00 00 	mov    $0x0,%r8
 3e2:	b9 1b 01 00 00       	mov    $0x11b,%ecx
 3e7:	48 c7 c2 00 00 00 00 	mov    $0x0,%rdx
 3ee:	48 c7 c7 00 00 00 00 	mov    $0x0,%rdi
 3f5:	64 48 8b 30          	mov    %fs:(%rax),%rsi
 3f9:	e8 00 00 00 00       	callq  3fe <rb_insert.cold+0x8b>
 3fe:	e9 00 00 00 00       	jmpq   403 <rb_insert.cold+0x90>
 403:	48 8b 05 00 00 00 00 	mov    0x0(%rip),%rax        # 40a <rb_insert.cold+0x97>
 40a:	4d 89 e1             	mov    %r12,%r9
 40d:	49 c7 c0 00 00 00 00 	mov    $0x0,%r8
 414:	b9 5d 01 00 00       	mov    $0x15d,%ecx
 419:	48 c7 c2 00 00 00 00 	mov    $0x0,%rdx
 420:	48 c7 c7 00 00 00 00 	mov    $0x0,%rdi
 427:	64 48 8b 30          	mov    %fs:(%rax),%rsi
 42b:	e8 00 00 00 00       	callq  430 <rb_insert.cold+0xbd>
 430:	e9 00 00 00 00       	jmpq   435 <rb_remove_fixup.cold>

0000000000000435 <rb_remove_fixup.cold>:
 435:	48 8b 05 00 00 00 00 	mov    0x0(%rip),%rax        # 43c <rb_remove_fixup.cold+0x7>
 43c:	49 c7 c0 00 00 00 00 	mov    $0x0,%r8
 443:	b9 c3 01 00 00       	mov    $0x1c3,%ecx
 448:	48 c7 c2 00 00 00 00 	mov    $0x0,%rdx
 44f:	48 c7 c7 00 00 00 00 	mov    $0x0,%rdi
 456:	64 48 8b 30          	mov    %fs:(%rax),%rsi
 45a:	e8 00 00 00 00       	callq  45f <rb_remove_fixup.cold+0x2a>
 45f:	e9 00 00 00 00       	jmpq   464 <rb_remove_fixup.cold+0x2f>
 464:	48 8b 05 00 00 00 00 	mov    0x0(%rip),%rax        # 46b <rb_remove_fixup.cold+0x36>
 46b:	49 c7 c0 00 00 00 00 	mov    $0x0,%r8
 472:	b9 eb 01 00 00       	mov    $0x1eb,%ecx
 477:	48 c7 c2 00 00 00 00 	mov    $0x0,%rdx
 47e:	48 c7 c7 00 00 00 00 	mov    $0x0,%rdi
 485:	64 48 8b 30          	mov    %fs:(%rax),%rsi
 489:	e8 00 00 00 00       	callq  48e <rb_remove_fixup.cold+0x59>
 48e:	e9 00 00 00 00       	jmpq   493 <rb_remove_fixup.cold+0x5e>
 493:	48 8b 05 00 00 00 00 	mov    0x0(%rip),%rax        # 49a <rb_remove_fixup.cold+0x65>
 49a:	49 c7 c0 00 00 00 00 	mov    $0x0,%r8
 4a1:	b9 07 02 00 00       	mov    $0x207,%ecx
 4a6:	48 c7 c2 00 00 00 00 	mov    $0x0,%rdx
 4ad:	48 c7 c7 00 00 00 00 	mov    $0x0,%rdi
 4b4:	64 48 8b 30          	mov    %fs:(%rax),%rsi
 4b8:	e8 00 00 00 00       	callq  4bd <rb_remove_fixup.cold+0x88>
 4bd:	e9 00 00 00 00       	jmpq   4c2 <rb_remove_fixup.cold+0x8d>
 4c2:	48 8b 05 00 00 00 00 	mov    0x0(%rip),%rax        # 4c9 <rb_remove_fixup.cold+0x94>
 4c9:	49 c7 c0 00 00 00 00 	mov    $0x0,%r8
 4d0:	b9 ff 01 00 00       	mov    $0x1ff,%ecx
 4d5:	48 c7 c2 00 00 00 00 	mov    $0x0,%rdx
 4dc:	48 c7 c7 00 00 00 00 	mov    $0x0,%rdi
 4e3:	64 48 8b 30          	mov    %fs:(%rax),%rsi
 4e7:	e8 00 00 00 00       	callq  4ec <rb_remove_fixup.cold+0xb7>
 4ec:	0f b6 05 00 00 00 00 	movzbl 0x0(%rip),%eax        # 4f3 <rb_remove_fixup.cold+0xbe>
 4f3:	e9 00 00 00 00       	jmpq   4f8 <rb_remove_fixup.cold+0xc3>
 4f8:	48 8b 05 00 00 00 00 	mov    0x0(%rip),%rax        # 4ff <rb_remove_fixup.cold+0xca>
 4ff:	49 c7 c0 00 00 00 00 	mov    $0x0,%r8
 506:	b9 cd 01 00 00       	mov    $0x1cd,%ecx
 50b:	48 c7 c2 00 00 00 00 	mov    $0x0,%rdx
 512:	48 c7 c7 00 00 00 00 	mov    $0x0,%rdi
 519:	64 48 8b 30          	mov    %fs:(%rax),%rsi
 51d:	e8 00 00 00 00       	callq  522 <rb_remove_fixup.cold+0xed>
 522:	e9 00 00 00 00       	jmpq   527 <rb_remove_fixup.cold+0xf2>
 527:	48 8b 05 00 00 00 00 	mov    0x0(%rip),%rax        # 52e <rb_remove_fixup.cold+0xf9>
 52e:	49 c7 c0 00 00 00 00 	mov    $0x0,%r8
 535:	b9 e4 01 00 00       	mov    $0x1e4,%ecx
 53a:	48 c7 c2 00 00 00 00 	mov    $0x0,%rdx
 541:	48 c7 c7 00 00 00 00 	mov    $0x0,%rdi
 548:	64 48 8b 30          	mov    %fs:(%rax),%rsi
 54c:	e8 00 00 00 00       	callq  551 <rb_remove_fixup.cold+0x11c>
 551:	e9 00 00 00 00       	jmpq   556 <rb_remove_fixup.cold+0x121>
 556:	48 8b 05 00 00 00 00 	mov    0x0(%rip),%rax        # 55d <rb_remove_fixup.cold+0x128>
 55d:	49 c7 c0 00 00 00 00 	mov    $0x0,%r8
 564:	b9 d7 01 00 00       	mov    $0x1d7,%ecx
 569:	48 c7 c2 00 00 00 00 	mov    $0x0,%rdx
 570:	48 c7 c7 00 00 00 00 	mov    $0x0,%rdi
 577:	64 48 8b 30          	mov    %fs:(%rax),%rsi
 57b:	e8 00 00 00 00       	callq  580 <rb_remove_fixup.cold+0x14b>
 580:	0f b6 05 00 00 00 00 	movzbl 0x0(%rip),%eax        # 587 <rb_remove_fixup.cold+0x152>
 587:	e9 00 00 00 00       	jmpq   58c <rb_remove_fixup.cold+0x157>
 58c:	48 8b 05 00 00 00 00 	mov    0x0(%rip),%rax        # 593 <rb_remove_fixup.cold+0x15e>
 593:	49 c7 c0 00 00 00 00 	mov    $0x0,%r8
 59a:	b9 bc 01 00 00       	mov    $0x1bc,%ecx
 59f:	48 c7 c2 00 00 00 00 	mov    $0x0,%rdx
 5a6:	48 c7 c7 00 00 00 00 	mov    $0x0,%rdi
 5ad:	64 48 8b 30          	mov    %fs:(%rax),%rsi
 5b1:	e8 00 00 00 00       	callq  5b6 <rb_remove_fixup.cold+0x181>
 5b6:	e9 00 00 00 00       	jmpq   5bb <rb_remove_fixup.cold+0x186>
 5bb:	48 8b 05 00 00 00 00 	mov    0x0(%rip),%rax        # 5c2 <rb_remove_fixup.cold+0x18d>
 5c2:	49 c7 c0 00 00 00 00 	mov    $0x0,%r8
 5c9:	b9 f5 01 00 00       	mov    $0x1f5,%ecx
 5ce:	48 c7 c2 00 00 00 00 	mov    $0x0,%rdx
 5d5:	48 c7 c7 00 00 00 00 	mov    $0x0,%rdi
 5dc:	64 48 8b 30          	mov    %fs:(%rax),%rsi
 5e0:	e8 00 00 00 00       	callq  5e5 <rb_remove_fixup.cold+0x1b0>
 5e5:	e9 00 00 00 00       	jmpq   5ea <rb_remove.cold>

00000000000005ea <rb_remove.cold>:
 5ea:	48 8b 05 00 00 00 00 	mov    0x0(%rip),%rax        # 5f1 <rb_remove.cold+0x7>
 5f1:	45 89 f1             	mov    %r14d,%r9d
 5f4:	49 c7 c0 00 00 00 00 	mov    $0x0,%r8
 5fb:	b9 a4 01 00 00       	mov    $0x1a4,%ecx
 600:	48 c7 c2 00 00 00 00 	mov    $0x0,%rdx
 607:	48 c7 c7 00 00 00 00 	mov    $0x0,%rdi
 60e:	64 48 8b 30          	mov    %fs:(%rax),%rsi
 612:	e8 00 00 00 00       	callq  617 <rb_remove.cold+0x2d>
 617:	e9 00 00 00 00       	jmpq   61c <rb_remove.cold+0x32>
 61c:	49 89 dc             	mov    %rbx,%r12
 61f:	48 8b 05 00 00 00 00 	mov    0x0(%rip),%rax        # 626 <rb_remove.cold+0x3c>
 626:	45 8b 4c 24 18       	mov    0x18(%r12),%r9d
 62b:	49 c7 c0 00 00 00 00 	mov    $0x0,%r8
 632:	b9 8c 01 00 00       	mov    $0x18c,%ecx
 637:	48 c7 c2 00 00 00 00 	mov    $0x0,%rdx
 63e:	48 c7 c7 00 00 00 00 	mov    $0x0,%rdi
 645:	64 48 8b 30          	mov    %fs:(%rax),%rsi
 649:	e8 00 00 00 00       	callq  64e <rb_remove.cold+0x64>
 64e:	e9 00 00 00 00       	jmpq   653 <rb_remove.cold+0x69>
 653:	48 8b 05 00 00 00 00 	mov    0x0(%rip),%rax        # 65a <rb_remove.cold+0x70>
 65a:	49 c7 c0 00 00 00 00 	mov    $0x0,%r8
 661:	b9 70 01 00 00       	mov    $0x170,%ecx
 666:	48 c7 c2 00 00 00 00 	mov    $0x0,%rdx
 66d:	48 c7 c7 00 00 00 00 	mov    $0x0,%rdi
 674:	64 48 8b 30          	mov    %fs:(%rax),%rsi
 678:	41 56                	push   %r14
 67a:	49 89 f1             	mov    %rsi,%r9
 67d:	e8 00 00 00 00       	callq  682 <rb_remove.cold+0x98>
 682:	58                   	pop    %rax
 683:	e9 00 00 00 00       	jmpq   688 <rb_remove.cold+0x9e>
 688:	48 8b 05 00 00 00 00 	mov    0x0(%rip),%rax        # 68f <rb_remove.cold+0xa5>
 68f:	44 8b 4b 18          	mov    0x18(%rbx),%r9d
 693:	49 c7 c0 00 00 00 00 	mov    $0x0,%r8
 69a:	b9 98 01 00 00       	mov    $0x198,%ecx
 69f:	48 c7 c2 00 00 00 00 	mov    $0x0,%rdx
 6a6:	48 c7 c7 00 00 00 00 	mov    $0x0,%rdi
 6ad:	64 48 8b 30          	mov    %fs:(%rax),%rsi
 6b1:	e8 00 00 00 00       	callq  6b6 <rb_remove.cold+0xcc>
 6b6:	e9 00 00 00 00       	jmpq   6bb <tree_search.cold>

00000000000006bb <tree_search.cold>:
 6bb:	48 8b 05 00 00 00 00 	mov    0x0(%rip),%rax        # 6c2 <tree_search.cold+0x7>
 6c2:	49 c7 c0 00 00 00 00 	mov    $0x0,%r8
 6c9:	b9 12 02 00 00       	mov    $0x212,%ecx
 6ce:	48 c7 c2 00 00 00 00 	mov    $0x0,%rdx
 6d5:	48 c7 c7 00 00 00 00 	mov    $0x0,%rdi
 6dc:	64 48 8b 30          	mov    %fs:(%rax),%rsi
 6e0:	e8 00 00 00 00       	callq  6e5 <tree_search.cold+0x2a>
 6e5:	e9 00 00 00 00       	jmpq   6ea <rb_remove_fixup+0x2a>
